; Function Attrs: nounwind uwtable
define double @l_Float_ofBinaryScientific(ptr noundef %0, ptr noundef %1) local_unnamed_addr #0 {
  %3 = tail call ptr @lean_nat_log2(ptr noundef %0) #4
  %4 = ptrtoint ptr %3 to i64
  %5 = and i64 %4, 1
  %.not = icmp eq i64 %5, 0
  br i1 %.not, label %11, label %6, !prof !4

6:                                                ; preds = %2
  %7 = icmp ult ptr %3, inttoptr (i64 126 to ptr)
  br i1 %7, label %lean_dec.exit, label %8

8:                                                ; preds = %6
  %9 = add i64 %4, -126
  %10 = inttoptr i64 %9 to ptr
  br label %lean_dec.exit

11:                                               ; preds = %2
  %12 = tail call ptr @lean_nat_big_sub(ptr noundef %3, ptr noundef nonnull inttoptr (i64 127 to ptr)) #4
  %13 = load i32, ptr %3, align 4, !tbaa !5
  %14 = icmp sgt i32 %13, 1
  br i1 %14, label %15, label %17, !prof !10

15:                                               ; preds = %11
  %16 = add nsw i32 %13, -1
  store i32 %16, ptr %3, align 4, !tbaa !5
  br label %lean_dec.exit

17:                                               ; preds = %11
  %.not.i23 = icmp eq i32 %13, 0
  br i1 %.not.i23, label %lean_dec.exit, label %18

18:                                               ; preds = %17
  tail call void @lean_dec_ref_cold(ptr noundef nonnull %3) #4
  br label %lean_dec.exit

lean_dec.exit:                                    ; preds = %8, %6, %18, %17, %15
  %.1.i34 = phi ptr [ %12, %15 ], [ %12, %17 ], [ %12, %18 ], [ inttoptr (i64 1 to ptr), %6 ], [ %10, %8 ]
  %19 = ptrtoint ptr %0 to i64
  %20 = and i64 %19, 1
  %.not.i25 = icmp eq i64 %20, 0
  br i1 %.not.i25, label %.critedge.i26, label %21, !prof !4

21:                                               ; preds = %lean_dec.exit
  %22 = ptrtoint ptr %.1.i34 to i64
  %23 = and i64 %22, 1
  %.not10.i = icmp eq i64 %23, 0
  br i1 %.not10.i, label %.critedge.i26, label %24, !prof !4

24:                                               ; preds = %21
  %25 = lshr i64 %19, 1
  %26 = lshr i64 %22, 1
  %27 = icmp ult ptr %.1.i34, inttoptr (i64 128 to ptr)
  %28 = lshr i64 %25, %26
  %29 = shl nuw i64 %28, 1
  %30 = or disjoint i64 %29, 1
  %31 = inttoptr i64 %30 to ptr
  %32 = select i1 %27, ptr %31, ptr inttoptr (i64 1 to ptr)
  br label %lean_nat_shiftr.exit

.critedge.i26:                                    ; preds = %21, %lean_dec.exit
  %33 = tail call ptr @lean_nat_big_shiftr(ptr noundef %0, ptr noundef %.1.i34) #4
  br label %lean_nat_shiftr.exit

lean_nat_shiftr.exit:                             ; preds = %24, %.critedge.i26
  %.0.i = phi ptr [ %32, %24 ], [ %33, %.critedge.i26 ]
  %34 = ptrtoint ptr %.0.i to i64
  %35 = and i64 %34, 1
  %.not.i27 = icmp eq i64 %35, 0
  br i1 %.not.i27, label %37, label %lean_uint64_of_nat.exit.thread

lean_uint64_of_nat.exit.thread:                   ; preds = %lean_nat_shiftr.exit
  %36 = lshr i64 %34, 1
  br label %lean_dec.exit16

37:                                               ; preds = %lean_nat_shiftr.exit
  %38 = tail call i64 @lean_uint64_of_big_nat(ptr noundef %.0.i) #4
  %39 = load i32, ptr %.0.i, align 4, !tbaa !5
  %40 = icmp sgt i32 %39, 1
  br i1 %40, label %41, label %43, !prof !10

41:                                               ; preds = %37
  %42 = add nsw i32 %39, -1
  store i32 %42, ptr %.0.i, align 4, !tbaa !5
  br label %lean_dec.exit16

43:                                               ; preds = %37
  %.not.i21 = icmp eq i32 %39, 0
  br i1 %.not.i21, label %lean_dec.exit16, label %44

44:                                               ; preds = %43
  tail call void @lean_dec_ref_cold(ptr noundef nonnull %.0.i) #4
  br label %lean_dec.exit16

lean_dec.exit16:                                  ; preds = %44, %43, %41, %lean_uint64_of_nat.exit.thread
  %45 = phi i64 [ %36, %lean_uint64_of_nat.exit.thread ], [ %38, %41 ], [ %38, %43 ], [ %38, %44 ]
  %46 = ptrtoint ptr %.1.i34 to i64
  %47 = and i64 %46, 1
  %.not.i28 = icmp eq i64 %47, 0
  %48 = icmp ult ptr %.1.i34, inttoptr (i64 4294967296 to ptr)
  %or.cond.i = or i1 %48, %.not.i28
  br i1 %or.cond.i, label %lean_nat_to_int.exit, label %49

49:                                               ; preds = %lean_dec.exit16
  %50 = lshr i64 %46, 1
  %51 = tail call ptr @lean_big_size_t_to_int(i64 noundef %50) #4
  br label %lean_nat_to_int.exit

lean_nat_to_int.exit:                             ; preds = %lean_dec.exit16, %49
  %.1.i29 = phi ptr [ %51, %49 ], [ %.1.i34, %lean_dec.exit16 ]
  %52 = ptrtoint ptr %1 to i64
  %53 = and i64 %52, 1
  %.not.i30 = icmp eq i64 %53, 0
  %.pre39 = ptrtoint ptr %.1.i29 to i64
  %.pre = and i64 %.pre39, 1
  %54 = icmp eq i64 %.pre, 0
  br i1 %.not.i30, label %lean_int_add.exit, label %55, !prof !4

55:                                               ; preds = %lean_nat_to_int.exit
  br i1 %54, label %lean_int_add.exit.thread43, label %57, !prof !4

lean_int_add.exit.thread43:                       ; preds = %55
  %56 = tail call ptr @lean_int_big_add(ptr noundef %1, ptr noundef %.1.i29) #4
  br label %73

57:                                               ; preds = %55
  %58 = shl i64 %52, 31
  %59 = ashr i64 %58, 32
  %60 = shl i64 %.pre39, 31
  %61 = ashr i64 %60, 32
  %62 = add nsw i64 %61, %59
  %63 = add nsw i64 %62, 2147483648
  %64 = icmp ult i64 %63, 4294967296
  br i1 %64, label %65, label %70, !prof !10

65:                                               ; preds = %57
  %66 = shl nsw i64 %62, 1
  %67 = and i64 %66, 8589934590
  %68 = or disjoint i64 %67, 1
  %69 = inttoptr i64 %68 to ptr
  br label %lean_dec.exit17

70:                                               ; preds = %57
  %71 = tail call ptr @lean_big_int64_to_int(i64 noundef range(i64 -4611686016279904256, 4611686018427387905) %62) #4
  br label %lean_dec.exit17

lean_int_add.exit:                                ; preds = %lean_nat_to_int.exit
  %72 = tail call ptr @lean_int_big_add(ptr noundef %1, ptr noundef %.1.i29) #4
  br i1 %54, label %73, label %lean_dec.exit17

73:                                               ; preds = %lean_int_add.exit.thread43, %lean_int_add.exit
  %74 = phi ptr [ %56, %lean_int_add.exit.thread43 ], [ %72, %lean_int_add.exit ]
  %75 = load i32, ptr %.1.i29, align 4, !tbaa !5
  %76 = icmp sgt i32 %75, 1
  br i1 %76, label %77, label %79, !prof !10

77:                                               ; preds = %73
  %78 = add nsw i32 %75, -1
  store i32 %78, ptr %.1.i29, align 4, !tbaa !5
  br label %lean_dec.exit17

79:                                               ; preds = %73
  %.not.i19 = icmp eq i32 %75, 0
  br i1 %.not.i19, label %lean_dec.exit17, label %80

80:                                               ; preds = %79
  tail call void @lean_dec_ref_cold(ptr noundef nonnull %.1.i29) #4
  br label %lean_dec.exit17

lean_dec.exit17:                                  ; preds = %70, %65, %80, %79, %77, %lean_int_add.exit
  %.0.i3142 = phi ptr [ %74, %80 ], [ %74, %79 ], [ %74, %77 ], [ %72, %lean_int_add.exit ], [ %71, %70 ], [ %69, %65 ]
  %81 = uitofp i64 %45 to double
  %82 = tail call double @lean_float_scaleb(double noundef %81, ptr noundef %.0.i3142) #4
  %83 = ptrtoint ptr %.0.i3142 to i64
  %84 = and i64 %83, 1
  %.not36 = icmp eq i64 %84, 0
  br i1 %.not36, label %85, label %lean_dec.exit18

85:                                               ; preds = %lean_dec.exit17
  %86 = load i32, ptr %.0.i3142, align 4, !tbaa !5
  %87 = icmp sgt i32 %86, 1
  br i1 %87, label %88, label %90, !prof !10

88:                                               ; preds = %85
  %89 = add nsw i32 %86, -1
  store i32 %89, ptr %.0.i3142, align 4, !tbaa !5
  br label %lean_dec.exit18

90:                                               ; preds = %85
  %.not.i = icmp eq i32 %86, 0
  br i1 %.not.i, label %lean_dec.exit18, label %91

91:                                               ; preds = %90
  tail call void @lean_dec_ref_cold(ptr noundef nonnull %.0.i3142) #4
  br label %lean_dec.exit18

lean_dec.exit18:                                  ; preds = %91, %90, %88, %lean_dec.exit17
  ret double %82
}